target datalayout = "e-m:e-p270:32:32-p271:32:32-p272:64:64-i64:64-i128:128-f80:128-n8:16:32:64-S128"
target triple = "x86_64-pc-linux-gnu"

%union.pthread_mutex_t = type { %struct.__pthread_mutex_s }
%struct.__pthread_mutex_s = type { i32, i32, i32, i32, i32, i16, i16, %struct.__pthread_internal_list }
%struct.__pthread_internal_list = type { ptr, ptr }
%struct.acct_gather_profile_timer_t = type { i32, i64, %union.pthread_cond_t, %union.pthread_mutex_t }
%union.pthread_cond_t = type { %struct.__pthread_cond_s }
%struct.__pthread_cond_s = type { %union.__atomic_wide_counter, %union.__atomic_wide_counter, [2 x i32], [2 x i32], i32, i32, [2 x i32] }
%union.__atomic_wide_counter = type { i64 }

@g_context_lock = internal global %union.pthread_mutex_t zeroinitializer, align 8
@.str.1 = private unnamed_addr constant [29 x i8] c"%s: pthread_mutex_lock(): %m\00", align 1
@plugin_inited = internal global i32 0, align 4
@g_context = internal global ptr null, align 8
@.str.3 = private unnamed_addr constant [31 x i8] c"%s: pthread_mutex_unlock(): %m\00", align 1
@acct_gather_filesystem_fini.fini_ran = internal global i8 0, align 1
@__func__.acct_gather_filesystem_fini = private unnamed_addr constant [28 x i8] c"acct_gather_filesystem_fini\00", align 1
@watch_node_thread_id = internal global i64 0, align 8
@profile_timer = internal global ptr getelementptr (i8, ptr @acct_gather_profile_timer, i64 208), align 8
@.str.5 = private unnamed_addr constant [36 x i8] c"%s:%d %s: pthread_cond_signal(): %m\00", align 1
@.str.6 = private unnamed_addr constant [25 x i8] c"acct_gather_filesystem.c\00", align 1
@.str.7 = private unnamed_addr constant [23 x i8] c"%s: pthread_join(): %m\00", align 1

; Function Attrs: nounwind uwtable
define dso_local i32 @acct_gather_filesystem_fini() #0 {
  %1 = alloca i32, align 4
  %2 = alloca i32, align 4
  %3 = alloca i32, align 4
  %4 = alloca i32, align 4
  %5 = alloca i32, align 4
  %6 = alloca i32, align 4
  %7 = alloca i32, align 4
  %8 = alloca i32, align 4
  %9 = alloca i32, align 4
  %10 = alloca i32, align 4
  %11 = alloca i32, align 4
  %12 = alloca i32, align 4
  call void @llvm.lifetime.start.p0(i64 4, ptr %2) #6
  store i32 0, ptr %2, align 4
  br label %13

13:                                               ; preds = %0
  call void @llvm.lifetime.start.p0(i64 4, ptr %3) #6
  %14 = call i32 @pthread_mutex_lock(ptr noundef @g_context_lock) #6
  store i32 %14, ptr %3, align 4
  %15 = load i32, ptr %3, align 4
  %16 = icmp ne i32 %15, 0
  br i1 %16, label %17, label %20

17:                                               ; preds = %13
  %18 = load i32, ptr %3, align 4
  %19 = call ptr @__errno_location() #7
  store i32 %18, ptr %19, align 4
  call void (ptr, ...) @fatal_abort(ptr noundef @.str.1, ptr noundef @__func__.acct_gather_filesystem_fini) #8
  unreachable

20:                                               ; preds = %13
  call void @llvm.lifetime.end.p0(i64 4, ptr %3) #6
  br label %21

21:                                               ; preds = %20
  br label %22

22:                                               ; preds = %21
  %23 = load i8, ptr @acct_gather_filesystem_fini.fini_ran, align 1, !range !8, !noundef !9
  %24 = trunc i8 %23 to i1
  br i1 %24, label %25, label %36

25:                                               ; preds = %22
  br label %26

26:                                               ; preds = %25
  call void @llvm.lifetime.start.p0(i64 4, ptr %4) #6
  %27 = call i32 @pthread_mutex_unlock(ptr noundef @g_context_lock) #6
  store i32 %27, ptr %4, align 4
  %28 = load i32, ptr %4, align 4
  %29 = icmp ne i32 %28, 0
  br i1 %29, label %30, label %33

30:                                               ; preds = %26
  %31 = load i32, ptr %4, align 4
  %32 = call ptr @__errno_location() #7
  store i32 %31, ptr %32, align 4
  call void (ptr, ...) @fatal_abort(ptr noundef @.str.3, ptr noundef @__func__.acct_gather_filesystem_fini) #8
  unreachable

33:                                               ; preds = %26
  call void @llvm.lifetime.end.p0(i64 4, ptr %4) #6
  br label %34

34:                                               ; preds = %33
  br label %35

35:                                               ; preds = %34
  store i32 0, ptr %1, align 4
  store i32 1, ptr %5, align 4
  br label %131

36:                                               ; preds = %22
  store i8 1, ptr @acct_gather_filesystem_fini.fini_ran, align 1
  %37 = load ptr, ptr @g_context, align 8
  %38 = icmp ne ptr %37, null
  br i1 %38, label %39, label %119

39:                                               ; preds = %36
  %40 = load i64, ptr @watch_node_thread_id, align 8
  %41 = icmp ne i64 %40, 0
  br i1 %41, label %42, label %116

42:                                               ; preds = %39
  br label %43

43:                                               ; preds = %42
  call void @llvm.lifetime.start.p0(i64 4, ptr %6) #6
  %44 = call i32 @pthread_mutex_unlock(ptr noundef @g_context_lock) #6
  store i32 %44, ptr %6, align 4
  %45 = load i32, ptr %6, align 4
  %46 = icmp ne i32 %45, 0
  br i1 %46, label %47, label %50

47:                                               ; preds = %43
  %48 = load i32, ptr %6, align 4
  %49 = call ptr @__errno_location() #7
  store i32 %48, ptr %49, align 4
  call void (ptr, ...) @fatal_abort(ptr noundef @.str.3, ptr noundef @__func__.acct_gather_filesystem_fini) #8
  unreachable

50:                                               ; preds = %43
  call void @llvm.lifetime.end.p0(i64 4, ptr %6) #6
  br label %51

51:                                               ; preds = %50
  br label %52

52:                                               ; preds = %51
  br label %53

53:                                               ; preds = %52
  call void @llvm.lifetime.start.p0(i64 4, ptr %7) #6
  %54 = load ptr, ptr @profile_timer, align 8
  %55 = getelementptr inbounds nuw %struct.acct_gather_profile_timer_t, ptr %54, i32 0, i32 3
  %56 = call i32 @pthread_mutex_lock(ptr noundef %55) #6
  store i32 %56, ptr %7, align 4
  %57 = load i32, ptr %7, align 4
  %58 = icmp ne i32 %57, 0
  br i1 %58, label %59, label %62

59:                                               ; preds = %53
  %60 = load i32, ptr %7, align 4
  %61 = call ptr @__errno_location() #7
  store i32 %60, ptr %61, align 4
  call void (ptr, ...) @fatal_abort(ptr noundef @.str.1, ptr noundef @__func__.acct_gather_filesystem_fini) #8
  unreachable

62:                                               ; preds = %53
  call void @llvm.lifetime.end.p0(i64 4, ptr %7) #6
  br label %63

63:                                               ; preds = %62
  br label %64

64:                                               ; preds = %63
  br label %65

65:                                               ; preds = %64
  call void @llvm.lifetime.start.p0(i64 4, ptr %8) #6
  %66 = load ptr, ptr @profile_timer, align 8
  %67 = getelementptr inbounds nuw %struct.acct_gather_profile_timer_t, ptr %66, i32 0, i32 2
  %68 = call i32 @pthread_cond_signal(ptr noundef %67) #6
  store i32 %68, ptr %8, align 4
  %69 = load i32, ptr %8, align 4
  %70 = icmp ne i32 %69, 0
  br i1 %70, label %71, label %75

71:                                               ; preds = %65
  %72 = load i32, ptr %8, align 4
  %73 = call ptr @__errno_location() #7
  store i32 %72, ptr %73, align 4
  %74 = call i32 (ptr, ...) @error(ptr noundef @.str.5, ptr noundef @.str.6, i32 noundef 165, ptr noundef @__func__.acct_gather_filesystem_fini)
  br label %75

75:                                               ; preds = %71, %65
  call void @llvm.lifetime.end.p0(i64 4, ptr %8) #6
  br label %76

76:                                               ; preds = %75
  br label %77

77:                                               ; preds = %76
  br label %78

78:                                               ; preds = %77
  call void @llvm.lifetime.start.p0(i64 4, ptr %9) #6
  %79 = load ptr, ptr @profile_timer, align 8
  %80 = getelementptr inbounds nuw %struct.acct_gather_profile_timer_t, ptr %79, i32 0, i32 3
  %81 = call i32 @pthread_mutex_unlock(ptr noundef %80) #6
  store i32 %81, ptr %9, align 4
  %82 = load i32, ptr %9, align 4
  %83 = icmp ne i32 %82, 0
  br i1 %83, label %84, label %87

84:                                               ; preds = %78
  %85 = load i32, ptr %9, align 4
  %86 = call ptr @__errno_location() #7
  store i32 %85, ptr %86, align 4
  call void (ptr, ...) @fatal_abort(ptr noundef @.str.3, ptr noundef @__func__.acct_gather_filesystem_fini) #8
  unreachable

87:                                               ; preds = %78
  call void @llvm.lifetime.end.p0(i64 4, ptr %9) #6
  br label %88

88:                                               ; preds = %87
  br label %89

89:                                               ; preds = %88
  br label %90

90:                                               ; preds = %89
  call void @llvm.lifetime.start.p0(i64 4, ptr %10) #6
  store i32 0, ptr %10, align 4
  %91 = load i64, ptr @watch_node_thread_id, align 8
  %92 = icmp ne i64 %91, 0
  br i1 %92, label %93, label %96

93:                                               ; preds = %90
  %94 = load i64, ptr @watch_node_thread_id, align 8
  %95 = call i32 @pthread_join(i64 noundef %94, ptr noundef null)
  store i32 %95, ptr %10, align 4
  store i64 0, ptr @watch_node_thread_id, align 8
  br label %96

96:                                               ; preds = %93, %90
  %97 = load i32, ptr %10, align 4
  %98 = icmp ne i32 %97, 0
  br i1 %98, label %99, label %103

99:                                               ; preds = %96
  %100 = load i32, ptr %10, align 4
  %101 = call ptr @__errno_location() #7
  store i32 %100, ptr %101, align 4
  %102 = call i32 (ptr, ...) @error(ptr noundef @.str.7, ptr noundef @__func__.acct_gather_filesystem_fini)
  br label %103

103:                                              ; preds = %99, %96
  call void @llvm.lifetime.end.p0(i64 4, ptr %10) #6
  br label %104

104:                                              ; preds = %103
  br label %105

105:                                              ; preds = %104
  store i64 0, ptr @watch_node_thread_id, align 8
  br label %106

106:                                              ; preds = %105
  call void @llvm.lifetime.start.p0(i64 4, ptr %11) #6
  %107 = call i32 @pthread_mutex_lock(ptr noundef @g_context_lock) #6
  store i32 %107, ptr %11, align 4
  %108 = load i32, ptr %11, align 4
  %109 = icmp ne i32 %108, 0
  br i1 %109, label %110, label %113

110:                                              ; preds = %106
  %111 = load i32, ptr %11, align 4
  %112 = call ptr @__errno_location() #7
  store i32 %111, ptr %112, align 4
  call void (ptr, ...) @fatal_abort(ptr noundef @.str.1, ptr noundef @__func__.acct_gather_filesystem_fini) #8
  unreachable

113:                                              ; preds = %106
  call void @llvm.lifetime.end.p0(i64 4, ptr %11) #6
  br label %114

114:                                              ; preds = %113
  br label %115

115:                                              ; preds = %114
  br label %116

116:                                              ; preds = %115, %39
  %117 = load ptr, ptr @g_context, align 8
  %118 = call i32 @plugin_context_destroy(ptr noundef %117)
  store i32 %118, ptr %2, align 4
  store ptr null, ptr @g_context, align 8
  br label %119

119:                                              ; preds = %116, %36
  store i32 0, ptr @plugin_inited, align 4
  br label %120

120:                                              ; preds = %119
  call void @llvm.lifetime.start.p0(i64 4, ptr %12) #6
  %121 = call i32 @pthread_mutex_unlock(ptr noundef @g_context_lock) #6
  store i32 %121, ptr %12, align 4
  %122 = load i32, ptr %12, align 4
  %123 = icmp ne i32 %122, 0
  br i1 %123, label %124, label %127

124:                                              ; preds = %120
  %125 = load i32, ptr %12, align 4
  %126 = call ptr @__errno_location() #7
  store i32 %125, ptr %126, align 4
  call void (ptr, ...) @fatal_abort(ptr noundef @.str.3, ptr noundef @__func__.acct_gather_filesystem_fini) #8
  unreachable

127:                                              ; preds = %120
  call void @llvm.lifetime.end.p0(i64 4, ptr %12) #6
  br label %128

128:                                              ; preds = %127
  br label %129

129:                                              ; preds = %128
  %130 = load i32, ptr %2, align 4
  store i32 %130, ptr %1, align 4
  store i32 1, ptr %5, align 4
  br label %131

131:                                              ; preds = %129, %35
  call void @llvm.lifetime.end.p0(i64 4, ptr %2) #6
  %132 = load i32, ptr %1, align 4
  ret i32 %132
}