; Function Attrs: nounwind uwtable
define dso_local i32 @acct_gather_filesystem_fini() local_unnamed_addr #0 {
  %1 = tail call i32 @pthread_mutex_lock(ptr noundef nonnull @g_context_lock) #6
  %.not = icmp eq i32 %1, 0
  br i1 %.not, label %4, label %2

2:                                                ; preds = %0
  %3 = tail call ptr @__errno_location() #7
  store i32 %1, ptr %3, align 4
  tail call void (ptr, ...) @fatal_abort(ptr noundef nonnull @.str.1, ptr noundef nonnull @__func__.acct_gather_filesystem_fini) #8
  unreachable

4:                                                ; preds = %0
  %.b31 = load i1, ptr @acct_gather_filesystem_fini.fini_ran, align 1
  br i1 %.b31, label %5, label %9

5:                                                ; preds = %4
  %6 = tail call i32 @pthread_mutex_unlock(ptr noundef nonnull @g_context_lock) #6
  %.not42 = icmp eq i32 %6, 0
  br i1 %.not42, label %47, label %7

7:                                                ; preds = %5
  %8 = tail call ptr @__errno_location() #7
  store i32 %6, ptr %8, align 4
  tail call void (ptr, ...) @fatal_abort(ptr noundef nonnull @.str.3, ptr noundef nonnull @__func__.acct_gather_filesystem_fini) #8
  unreachable

9:                                                ; preds = %4
  store i1 true, ptr @acct_gather_filesystem_fini.fini_ran, align 1
  %10 = load ptr, ptr @g_context, align 8
  %.not32 = icmp eq ptr %10, null
  br i1 %.not32, label %43, label %11

11:                                               ; preds = %9
  %12 = load i64, ptr @watch_node_thread_id, align 8
  %.not33 = icmp eq i64 %12, 0
  br i1 %.not33, label %40, label %13

13:                                               ; preds = %11
  %14 = tail call i32 @pthread_mutex_unlock(ptr noundef nonnull @g_context_lock) #6
  %.not34 = icmp eq i32 %14, 0
  br i1 %.not34, label %17, label %15

15:                                               ; preds = %13
  %16 = tail call ptr @__errno_location() #7
  store i32 %14, ptr %16, align 4
  tail call void (ptr, ...) @fatal_abort(ptr noundef nonnull @.str.3, ptr noundef nonnull @__func__.acct_gather_filesystem_fini) #8
  unreachable

17:                                               ; preds = %13
  %18 = tail call i32 @pthread_mutex_lock(ptr noundef nonnull getelementptr inbounds nuw (i8, ptr @acct_gather_profile_timer, i64 272)) #6
  %.not35 = icmp eq i32 %18, 0
  br i1 %.not35, label %21, label %19

19:                                               ; preds = %17
  %20 = tail call ptr @__errno_location() #7
  store i32 %18, ptr %20, align 4
  tail call void (ptr, ...) @fatal_abort(ptr noundef nonnull @.str.1, ptr noundef nonnull @__func__.acct_gather_filesystem_fini) #8
  unreachable

21:                                               ; preds = %17
  %22 = tail call i32 @pthread_cond_signal(ptr noundef nonnull getelementptr inbounds nuw (i8, ptr @acct_gather_profile_timer, i64 224)) #6
  %.not36 = icmp eq i32 %22, 0
  br i1 %.not36, label %26, label %23

23:                                               ; preds = %21
  %24 = tail call ptr @__errno_location() #7
  store i32 %22, ptr %24, align 4
  %25 = tail call i32 (ptr, ...) @error(ptr noundef nonnull @.str.5, ptr noundef nonnull @.str.6, i32 noundef 165, ptr noundef nonnull @__func__.acct_gather_filesystem_fini) #6
  br label %26

26:                                               ; preds = %23, %21
  %27 = tail call i32 @pthread_mutex_unlock(ptr noundef nonnull getelementptr inbounds nuw (i8, ptr @acct_gather_profile_timer, i64 272)) #6
  %.not37 = icmp eq i32 %27, 0
  br i1 %.not37, label %30, label %28

28:                                               ; preds = %26
  %29 = tail call ptr @__errno_location() #7
  store i32 %27, ptr %29, align 4
  tail call void (ptr, ...) @fatal_abort(ptr noundef nonnull @.str.3, ptr noundef nonnull @__func__.acct_gather_filesystem_fini) #8
  unreachable

30:                                               ; preds = %26
  %31 = load i64, ptr @watch_node_thread_id, align 8
  %.not38 = icmp eq i64 %31, 0
  br i1 %.not38, label %.thread, label %32

32:                                               ; preds = %30
  %33 = tail call i32 @pthread_join(i64 noundef %31, ptr noundef null) #6
  store i64 0, ptr @watch_node_thread_id, align 8
  %.not39 = icmp eq i32 %33, 0
  br i1 %.not39, label %.thread, label %34

34:                                               ; preds = %32
  %35 = tail call ptr @__errno_location() #7
  store i32 %33, ptr %35, align 4
  %36 = tail call i32 (ptr, ...) @error(ptr noundef nonnull @.str.7, ptr noundef nonnull @__func__.acct_gather_filesystem_fini) #6
  br label %.thread

.thread:                                          ; preds = %30, %34, %32
  store i64 0, ptr @watch_node_thread_id, align 8
  %37 = tail call i32 @pthread_mutex_lock(ptr noundef nonnull @g_context_lock) #6
  %.not40 = icmp eq i32 %37, 0
  br i1 %.not40, label %.thread._crit_edge, label %38

.thread._crit_edge:                               ; preds = %.thread
  %.pre = load ptr, ptr @g_context, align 8
  br label %40

38:                                               ; preds = %.thread
  %39 = tail call ptr @__errno_location() #7
  store i32 %37, ptr %39, align 4
  tail call void (ptr, ...) @fatal_abort(ptr noundef nonnull @.str.1, ptr noundef nonnull @__func__.acct_gather_filesystem_fini) #8
  unreachable

40:                                               ; preds = %.thread._crit_edge, %11
  %41 = phi ptr [ %.pre, %.thread._crit_edge ], [ %10, %11 ]
  %42 = tail call i32 @plugin_context_destroy(ptr noundef %41) #6
  store ptr null, ptr @g_context, align 8
  br label %43

43:                                               ; preds = %40, %9
  %.020 = phi i32 [ %42, %40 ], [ 0, %9 ]
  store i32 0, ptr @plugin_inited, align 4
  %44 = tail call i32 @pthread_mutex_unlock(ptr noundef nonnull @g_context_lock) #6
  %.not41 = icmp eq i32 %44, 0
  br i1 %.not41, label %47, label %45

45:                                               ; preds = %43
  %46 = tail call ptr @__errno_location() #7
  store i32 %44, ptr %46, align 4
  tail call void (ptr, ...) @fatal_abort(ptr noundef nonnull @.str.3, ptr noundef nonnull @__func__.acct_gather_filesystem_fini) #8
  unreachable

47:                                               ; preds = %43, %5
  %.0 = phi i32 [ 0, %5 ], [ %.020, %43 ]
  ret i32 %.0
}